; Function Attrs: nounwind uwtable
define dso_local void @ACLResetFirstArgs(ptr noundef captures(none) %0) local_unnamed_addr #0 {
  %2 = getelementptr inbounds nuw i8, ptr %0, i64 136
  %3 = load ptr, ptr %2, align 8, !tbaa !66
  %4 = icmp eq ptr %3, null
  br i1 %4, label %18, label %.preheader18

5:                                                ; preds = %17
  %6 = load ptr, ptr %2, align 8, !tbaa !66
  tail call void @zfree(ptr noundef %6) #25
  store ptr null, ptr %2, align 8, !tbaa !66
  br label %18

.preheader18:                                     ; preds = %1, %17
  %indvars.iv24 = phi i64 [ %indvars.iv.next25, %17 ], [ 0, %1 ]
  %7 = load ptr, ptr %2, align 8, !tbaa !66
  %8 = getelementptr inbounds nuw ptr, ptr %7, i64 %indvars.iv24
  %9 = load ptr, ptr %8, align 8, !tbaa !73
  %.not = icmp eq ptr %9, null
  br i1 %.not, label %17, label %.preheader

.preheader:                                       ; preds = %.preheader18
  %10 = load ptr, ptr %9, align 8, !tbaa !29
  %.not1719 = icmp eq ptr %10, null
  br i1 %.not1719, label %._crit_edge, label %.lr.ph

._crit_edge:                                      ; preds = %.lr.ph, %.preheader
  %.lcssa = phi ptr [ %9, %.preheader ], [ %14, %.lr.ph ]
  tail call void @zfree(ptr noundef nonnull %.lcssa) #25
  br label %17

.lr.ph:                                           ; preds = %.preheader, %.lr.ph
  %indvars.iv = phi i64 [ %indvars.iv.next, %.lr.ph ], [ 0, %.preheader ]
  %11 = phi ptr [ %16, %.lr.ph ], [ %10, %.preheader ]
  tail call void @sdsfree(ptr noundef nonnull %11) #25
  %indvars.iv.next = add nuw nsw i64 %indvars.iv, 1
  %12 = load ptr, ptr %2, align 8, !tbaa !66
  %13 = getelementptr inbounds nuw ptr, ptr %12, i64 %indvars.iv24
  %14 = load ptr, ptr %13, align 8, !tbaa !73
  %15 = getelementptr inbounds nuw ptr, ptr %14, i64 %indvars.iv.next
  %16 = load ptr, ptr %15, align 8, !tbaa !29
  %.not17 = icmp eq ptr %16, null
  br i1 %.not17, label %._crit_edge, label %.lr.ph, !llvm.loop !74

17:                                               ; preds = %.preheader18, %._crit_edge
  %indvars.iv.next25 = add nuw nsw i64 %indvars.iv24, 1
  %exitcond.not = icmp eq i64 %indvars.iv.next25, 1024
  br i1 %exitcond.not, label %5, label %.preheader18, !llvm.loop !75

18:                                               ; preds = %1, %5
  ret void
}